target datalayout = "e-m:e-p270:32:32-p271:32:32-p272:64:64-i64:64-i128:128-f80:128-n8:16:32:64-S128"
target triple = "x86_64-pc-linux-gnu"

%"class.std::__cxx11::basic_string" = type { %"struct.std::__cxx11::basic_string<char>::_Alloc_hider", i64, %union.anon }
%"struct.std::__cxx11::basic_string<char>::_Alloc_hider" = type { ptr }
%union.anon = type { i64, [8 x i8] }
%"struct.dap::Field" = type { %"class.std::__cxx11::basic_string", i64, ptr }
%class.anon.171 = type { ptr, ptr }

; Function Attrs: mustprogress uwtable
define internal noundef zeroext i1 @"_ZZN3dap6TypeOfINS_30SetExceptionBreakpointsRequestEE17deserializeFieldsEPKNS_12DeserializerEPvENK3$_0clEPS3_"(ptr noundef nonnull align 8 dereferenceable(16) %0, ptr noundef %1) #0 align 2 {
  %3 = alloca ptr, align 8
  %4 = alloca ptr, align 8
  %5 = alloca ptr, align 8
  store ptr %0, ptr %3, align 8
  store ptr %1, ptr %4, align 8
  %6 = load ptr, ptr %3, align 8
  %7 = getelementptr inbounds %class.anon.171, ptr %6, i32 0, i32 0
  %8 = load ptr, ptr %7, align 8
  %9 = load ptr, ptr %8, align 8
  %10 = getelementptr inbounds %class.anon.171, ptr %6, i32 0, i32 1
  %11 = load ptr, ptr %10, align 8
  %12 = getelementptr inbounds %"struct.dap::Field", ptr %11, i32 0, i32 1
  %13 = load i64, ptr %12, align 8
  %14 = getelementptr inbounds i8, ptr %9, i64 %13
  store ptr %14, ptr %5, align 8
  %15 = getelementptr inbounds %class.anon.171, ptr %6, i32 0, i32 1
  %16 = load ptr, ptr %15, align 8
  %17 = getelementptr inbounds %"struct.dap::Field", ptr %16, i32 0, i32 2
  %18 = load ptr, ptr %17, align 8
  %19 = load ptr, ptr %4, align 8
  %20 = load ptr, ptr %5, align 8
  %21 = load ptr, ptr %18, align 8
  %22 = getelementptr inbounds ptr, ptr %21, i64 8
  %23 = load ptr, ptr %22, align 8
  %24 = call noundef zeroext i1 %23(ptr noundef nonnull align 8 dereferenceable(8) %18, ptr noundef %19, ptr noundef %20)
  ret i1 %24
}

; Function Attrs: mustprogress nounwind uwtable
define linkonce_odr dso_local noundef ptr @_ZNKSt9_Any_data9_M_accessEv(ptr noundef nonnull align 8 dereferenceable(16) %0) #2 comdat align 2 {
  %2 = alloca ptr, align 8
  store ptr %0, ptr %2, align 8
  %3 = load ptr, ptr %2, align 8
  %4 = getelementptr inbounds [16 x i8], ptr %3, i64 0, i64 0
  ret ptr %4
}

; Function Attrs: mustprogress uwtable
define internal noundef zeroext i1 @"_ZSt13__invoke_implIbRZN3dap6TypeOfINS0_30SetExceptionBreakpointsRequestEE17deserializeFieldsEPKNS0_12DeserializerEPvE3$_0JPS4_EET_St14__invoke_otherOT0_DpOT1_"(ptr noundef nonnull align 8 dereferenceable(16) %0, ptr noundef nonnull align 8 dereferenceable(8) %1) #0 {
  %3 = alloca ptr, align 8
  %4 = alloca ptr, align 8
  store ptr %0, ptr %3, align 8
  store ptr %1, ptr %4, align 8
  %5 = load ptr, ptr %3, align 8
  %6 = load ptr, ptr %4, align 8
  %7 = load ptr, ptr %6, align 8
  %8 = call noundef zeroext i1 @"_ZZN3dap6TypeOfINS_30SetExceptionBreakpointsRequestEE17deserializeFieldsEPKNS_12DeserializerEPvENK3$_0clEPS3_"(ptr noundef nonnull align 8 dereferenceable(16) %5, ptr noundef %7)
  ret i1 %8
}

; Function Attrs: mustprogress nounwind uwtable
define internal noundef nonnull align 8 dereferenceable(16) ptr @"_ZNKSt9_Any_data9_M_accessIZN3dap6TypeOfINS1_30SetExceptionBreakpointsRequestEE17deserializeFieldsEPKNS1_12DeserializerEPvE3$_0EERKT_v"(ptr noundef nonnull align 8 dereferenceable(16) %0) #2 align 2 {
  %2 = alloca ptr, align 8
  store ptr %0, ptr %2, align 8
  %3 = load ptr, ptr %2, align 8
  %4 = call noundef ptr @_ZNKSt9_Any_data9_M_accessEv(ptr noundef nonnull align 8 dereferenceable(16) %3) #3
  ret ptr %4
}

; Function Attrs: mustprogress uwtable
define internal noundef zeroext i1 @"_ZSt10__invoke_rIbRZN3dap6TypeOfINS0_30SetExceptionBreakpointsRequestEE17deserializeFieldsEPKNS0_12DeserializerEPvE3$_0JPS4_EENSt9enable_ifIX16is_invocable_r_vIT_T0_DpT1_EESC_E4typeEOSD_DpOSE_"(ptr noundef nonnull align 8 dereferenceable(16) %0, ptr noundef nonnull align 8 dereferenceable(8) %1) #0 {
  %3 = alloca ptr, align 8
  %4 = alloca ptr, align 8
  store ptr %0, ptr %3, align 8
  store ptr %1, ptr %4, align 8
  %5 = load ptr, ptr %3, align 8
  %6 = load ptr, ptr %4, align 8
  %7 = call noundef zeroext i1 @"_ZSt13__invoke_implIbRZN3dap6TypeOfINS0_30SetExceptionBreakpointsRequestEE17deserializeFieldsEPKNS0_12DeserializerEPvE3$_0JPS4_EET_St14__invoke_otherOT0_DpOT1_"(ptr noundef nonnull align 8 dereferenceable(16) %5, ptr noundef nonnull align 8 dereferenceable(8) %6)
  ret i1 %7
}

; Function Attrs: mustprogress nounwind uwtable
define internal noundef ptr @"_ZNSt14_Function_base13_Base_managerIZN3dap6TypeOfINS1_30SetExceptionBreakpointsRequestEE17deserializeFieldsEPKNS1_12DeserializerEPvE3$_0E14_M_get_pointerERKSt9_Any_data"(ptr noundef nonnull align 8 dereferenceable(16) %0) #2 align 2 {
  %2 = alloca ptr, align 8
  %3 = alloca ptr, align 8
  store ptr %0, ptr %2, align 8
  %4 = load ptr, ptr %2, align 8
  %5 = call noundef nonnull align 8 dereferenceable(16) ptr @"_ZNKSt9_Any_data9_M_accessIZN3dap6TypeOfINS1_30SetExceptionBreakpointsRequestEE17deserializeFieldsEPKNS1_12DeserializerEPvE3$_0EERKT_v"(ptr noundef nonnull align 8 dereferenceable(16) %4) #3
  store ptr %5, ptr %3, align 8
  %6 = load ptr, ptr %3, align 8
  ret ptr %6
}

; Function Attrs: mustprogress uwtable
define internal noundef zeroext i1 @"_ZNSt17_Function_handlerIFbPN3dap12DeserializerEEZNS0_6TypeOfINS0_30SetExceptionBreakpointsRequestEE17deserializeFieldsEPKS1_PvE3$_0E9_M_invokeERKSt9_Any_dataOS2_"(ptr noundef nonnull align 8 dereferenceable(16) %0, ptr noundef nonnull align 8 dereferenceable(8) %1) #0 align 2 {
  %3 = alloca ptr, align 8
  %4 = alloca ptr, align 8
  store ptr %0, ptr %3, align 8
  store ptr %1, ptr %4, align 8
  %5 = load ptr, ptr %3, align 8
  %6 = call noundef ptr @"_ZNSt14_Function_base13_Base_managerIZN3dap6TypeOfINS1_30SetExceptionBreakpointsRequestEE17deserializeFieldsEPKNS1_12DeserializerEPvE3$_0E14_M_get_pointerERKSt9_Any_data"(ptr noundef nonnull align 8 dereferenceable(16) %5) #3
  %7 = load ptr, ptr %4, align 8
  %8 = call noundef zeroext i1 @"_ZSt10__invoke_rIbRZN3dap6TypeOfINS0_30SetExceptionBreakpointsRequestEE17deserializeFieldsEPKNS0_12DeserializerEPvE3$_0JPS4_EENSt9enable_ifIX16is_invocable_r_vIT_T0_DpT1_EESC_E4typeEOSD_DpOSE_"(ptr noundef nonnull align 8 dereferenceable(16) %6, ptr noundef nonnull align 8 dereferenceable(8) %7)
  ret i1 %8
}